target datalayout = "e-m:e-p270:32:32-p271:32:32-p272:64:64-i64:64-i128:128-f80:128-n8:16:32:64-S128"
target triple = "x86_64-pc-linux-gnu"

%class.Symbol = type { i32, i16, [2 x i8] }

@g_assert_poison = external global ptr, align 8
@.str = private unnamed_addr constant [42 x i8] c"src/hotspot/share/services/heapDumper.cpp\00", align 1

; Function Attrs: mustprogress nounwind uwtable
define linkonce_odr hidden noundef ptr @_ZNK6Symbol4baseEv(ptr noundef nonnull align 4 dereferenceable(8) %0) #1 comdat align 2 {
  %2 = alloca ptr, align 8
  store ptr %0, ptr %2, align 8
  %3 = load ptr, ptr %2, align 8
  %4 = getelementptr inbounds %class.Symbol, ptr %3, i32 0, i32 2
  %5 = getelementptr inbounds [2 x i8], ptr %4, i64 0, i64 0
  ret ptr %5
}

; Function Attrs: mustprogress nounwind uwtable
define linkonce_odr hidden noundef signext i8 @_ZNK6Symbol7char_atEi(ptr noundef nonnull align 4 dereferenceable(8) %0, i32 noundef %1) #1 comdat align 2 {
  %3 = alloca ptr, align 8
  %4 = alloca i32, align 4
  store ptr %0, ptr %3, align 8
  store i32 %1, ptr %4, align 4
  %5 = load ptr, ptr %3, align 8
  %6 = call noundef ptr @_ZNK6Symbol4baseEv(ptr noundef nonnull align 4 dereferenceable(8) %5)
  %7 = load i32, ptr %4, align 4
  %8 = sext i32 %7 to i64
  %9 = getelementptr inbounds i8, ptr %6, i64 %8
  %10 = load i8, ptr %9, align 1
  ret i8 %10
}

; Function Attrs: mustprogress nounwind uwtable
define hidden noundef zeroext i8 @_ZN13DumperSupport7sig2tagEP6Symbol(ptr noundef %0) #1 align 2 {
  %2 = alloca i8, align 1
  %3 = alloca ptr, align 8
  store ptr %0, ptr %3, align 8
  %4 = load ptr, ptr %3, align 8
  %5 = call noundef signext i8 @_ZNK6Symbol7char_atEi(ptr noundef nonnull align 4 dereferenceable(8) %4, i32 noundef 0)
  %6 = sext i8 %5 to i32
  switch i32 %6, label %17 [
    i32 76, label %7
    i32 91, label %8
    i32 66, label %9
    i32 67, label %10
    i32 70, label %11
    i32 68, label %12
    i32 73, label %13
    i32 74, label %14
    i32 83, label %15
    i32 90, label %16
  ]

7:                                                ; preds = %1
  store i8 2, ptr %2, align 1
  br label %21

8:                                                ; preds = %1
  store i8 2, ptr %2, align 1
  br label %21

9:                                                ; preds = %1
  store i8 8, ptr %2, align 1
  br label %21

10:                                               ; preds = %1
  store i8 5, ptr %2, align 1
  br label %21

11:                                               ; preds = %1
  store i8 6, ptr %2, align 1
  br label %21

12:                                               ; preds = %1
  store i8 7, ptr %2, align 1
  br label %21

13:                                               ; preds = %1
  store i8 10, ptr %2, align 1
  br label %21

14:                                               ; preds = %1
  store i8 11, ptr %2, align 1
  br label %21

15:                                               ; preds = %1
  store i8 9, ptr %2, align 1
  br label %21

16:                                               ; preds = %1
  store i8 4, ptr %2, align 1
  br label %21

17:                                               ; preds = %1
  br label %18

18:                                               ; preds = %17
  %19 = load ptr, ptr @g_assert_poison, align 8
  store i8 88, ptr %19, align 1
  call void @_Z28report_should_not_reach_herePKci(ptr noundef @.str, i32 noundef 931) #13
  unreachable

20:                                               ; No predecessors!
  store i8 8, ptr %2, align 1
  br label %21

21:                                               ; preds = %20, %16, %15, %14, %13, %12, %11, %10, %9, %8, %7
  %22 = load i8, ptr %2, align 1
  ret i8 %22
}