; Function Attrs: mustprogress nounwind uwtable
define hidden noundef zeroext range(i8 2, 12) i8 @_ZN13DumperSupport7sig2tagEP6Symbol(ptr nocapture noundef readonly %0) local_unnamed_addr #3 align 2 {
  %2 = getelementptr inbounds i8, ptr %0, i64 6
  %3 = load i8, ptr %2, align 1
  switch i8 %3, label %12 [
    i8 76, label %14
    i8 91, label %14
    i8 66, label %4
    i8 67, label %5
    i8 70, label %6
    i8 68, label %7
    i8 73, label %8
    i8 74, label %9
    i8 83, label %10
    i8 90, label %11
  ]

4:                                                ; preds = %1
  br label %14

5:                                                ; preds = %1
  br label %14

6:                                                ; preds = %1
  br label %14

7:                                                ; preds = %1
  br label %14

8:                                                ; preds = %1
  br label %14

9:                                                ; preds = %1
  br label %14

10:                                               ; preds = %1
  br label %14

11:                                               ; preds = %1
  br label %14

12:                                               ; preds = %1
  %13 = load ptr, ptr @g_assert_poison, align 8
  store i8 88, ptr %13, align 1
  tail call void @_Z28report_should_not_reach_herePKci(ptr noundef nonnull @.str, i32 noundef 931) #20
  unreachable

14:                                               ; preds = %1, %1, %11, %10, %9, %8, %7, %6, %5, %4
  %.0 = phi i8 [ 4, %11 ], [ 9, %10 ], [ 11, %9 ], [ 10, %8 ], [ 7, %7 ], [ 6, %6 ], [ 5, %5 ], [ 8, %4 ], [ 2, %1 ], [ 2, %1 ]
  ret i8 %.0
}